; Function Attrs: nounwind uwtable
define dso_local i32 @get_object_namespace(ptr noundef readonly captures(none) %0) local_unnamed_addr #0 {
  %2 = load i32, ptr %0, align 4
  %3 = load ptr, ptr @get_object_property_data.prop_last, align 8
  %.not.i = icmp eq ptr %3, null
  br i1 %.not.i, label %.preheader, label %4

4:                                                ; preds = %1
  %5 = getelementptr inbounds nuw i8, ptr %3, i64 8
  %6 = load i32, ptr %5, align 8
  %7 = icmp eq i32 %6, %2
  br i1 %7, label %get_object_property_data.exit, label %.preheader

.preheader:                                       ; preds = %4, %1
  br label %9

8:                                                ; preds = %9
  %indvars.iv.next.i = add nuw nsw i64 %indvars.iv.i, 1
  %exitcond.not.i = icmp eq i64 %indvars.iv.next.i, 37
  br i1 %exitcond.not.i, label %15, label %9, !llvm.loop !10

9:                                                ; preds = %.preheader, %8
  %indvars.iv.i = phi i64 [ %indvars.iv.next.i, %8 ], [ 0, %.preheader ]
  %10 = getelementptr inbounds nuw [37 x %struct.ObjectPropertyType], ptr @ObjectProperty, i64 0, i64 %indvars.iv.i
  %11 = getelementptr inbounds nuw i8, ptr %10, i64 8
  %12 = load i32, ptr %11, align 8
  %13 = icmp eq i32 %12, %2
  br i1 %13, label %14, label %8

14:                                               ; preds = %9
  store ptr %10, ptr @get_object_property_data.prop_last, align 8
  br label %get_object_property_data.exit

15:                                               ; preds = %8
  %16 = tail call zeroext i1 @errstart_cold(i32 noundef 21, ptr noundef null) #12
  tail call void @llvm.assume(i1 %16)
  %17 = tail call i32 (ptr, ...) @errmsg_internal(ptr noundef nonnull @.str.229, i32 noundef %2) #11
  tail call void @errfinish(ptr noundef nonnull @.str.1, i32 noundef 2773, ptr noundef nonnull @__func__.get_object_property_data) #11
  unreachable

get_object_property_data.exit:                    ; preds = %4, %14
  %.08.i = phi ptr [ %10, %14 ], [ %3, %4 ]
  %18 = getelementptr inbounds nuw i8, ptr %.08.i, i64 28
  %19 = load i16, ptr %18, align 4
  %20 = icmp eq i16 %19, 0
  br i1 %20, label %36, label %21

21:                                               ; preds = %get_object_property_data.exit
  %22 = getelementptr inbounds nuw i8, ptr %.08.i, i64 16
  %23 = load i32, ptr %22, align 8
  %24 = getelementptr inbounds nuw i8, ptr %0, i64 4
  %25 = load i32, ptr %24, align 4
  %26 = zext i32 %25 to i64
  %27 = tail call ptr @SearchSysCache1(i32 noundef %23, i64 noundef %26) #11
  %.not = icmp eq ptr %27, null
  br i1 %.not, label %28, label %32

28:                                               ; preds = %21
  %29 = tail call zeroext i1 @errstart_cold(i32 noundef 21, ptr noundef null) #12
  tail call void @llvm.assume(i1 %29)
  %30 = load i32, ptr %24, align 4
  %31 = tail call i32 (ptr, ...) @errmsg_internal(ptr noundef nonnull @.str.21, i32 noundef %23, i32 noundef %30) #11
  tail call void @errfinish(ptr noundef nonnull @.str.1, i32 noundef 2589, ptr noundef nonnull @__func__.get_object_namespace) #11
  unreachable

32:                                               ; preds = %21
  %33 = load i16, ptr %18, align 4
  %34 = tail call i64 @SysCacheGetAttrNotNull(i32 noundef %23, ptr noundef nonnull %27, i16 noundef signext %33) #11
  %35 = trunc i64 %34 to i32
  tail call void @ReleaseSysCache(ptr noundef nonnull %27) #11
  br label %36

36:                                               ; preds = %get_object_property_data.exit, %32
  %.0 = phi i32 [ %35, %32 ], [ 0, %get_object_property_data.exit ]
  ret i32 %.0
}